; Function Attrs: mustprogress uwtable
define internal fastcc void @_ZN8facebook5velox12_GLOBAL__N_117generateJsonTypedIsLb0EEEvRKNS0_12SimpleVectorIT_EEiRNSt7__cxx1112basic_stringIcSt11char_traitsIcESaIcEEERKSt10shared_ptrIKNS0_4TypeEE(ptr noundef nonnull align 8 dereferenceable(116) %input, i32 noundef %row, ptr noundef nonnull align 8 dereferenceable(32) %result, ptr nocapture noundef nonnull readonly align 8 dereferenceable(16) %type) unnamed_addr #0 personality ptr @__gxx_personality_v0 {
entry:
  %buffer.i.i = alloca [20 x i8], align 16
  %ref.tmp = alloca %"class.std::__cxx11::basic_string", align 8
  %vtable = load ptr, ptr %input, align 8
  %vfn = getelementptr inbounds i8, ptr %vtable, i64 352
  %0 = load ptr, ptr %vfn, align 8
  %call = tail call noundef signext i16 %0(ptr noundef nonnull align 8 dereferenceable(116) %input, i32 noundef %row)
  %1 = load ptr, ptr %type, align 8
  %call.i7 = tail call noundef nonnull align 8 dereferenceable(16) ptr @_ZN8facebook5velox8DateType3getEv()
  %2 = load ptr, ptr %call.i7, align 8
  %cmp.i = icmp eq ptr %1, %2
  br i1 %cmp.i, label %if.then, label %if.else

if.then:                                          ; preds = %entry
  %call.i = tail call noundef nonnull align 8 dereferenceable(16) ptr @_ZN8facebook5velox8DateType3getEv()
  %3 = load ptr, ptr %call.i, align 8
  %conv = sext i16 %call to i32
  call void @_ZNK8facebook5velox8DateType8toStringB5cxx11Ei(ptr nonnull sret(%"class.std::__cxx11::basic_string") align 8 %ref.tmp, ptr noundef nonnull align 8 dereferenceable(17) %3, i32 noundef %conv)
  %call5 = invoke noundef nonnull align 8 dereferenceable(32) ptr @_ZNSt7__cxx1112basic_stringIcSt11char_traitsIcESaIcEE6appendERKS4_(ptr noundef nonnull align 8 dereferenceable(32) %result, ptr noundef nonnull align 8 dereferenceable(32) %ref.tmp)
          to label %invoke.cont unwind label %lpad

invoke.cont:                                      ; preds = %if.then
  call void @_ZNSt7__cxx1112basic_stringIcSt11char_traitsIcESaIcEED1Ev(ptr noundef nonnull align 8 dereferenceable(32) %ref.tmp) #33
  br label %if.end

lpad:                                             ; preds = %if.then
  %4 = landingpad { ptr, i32 }
          cleanup
  call void @_ZNSt7__cxx1112basic_stringIcSt11char_traitsIcESaIcEED1Ev(ptr noundef nonnull align 8 dereferenceable(32) %ref.tmp) #33
  resume { ptr, i32 } %4

if.else:                                          ; preds = %entry
  call void @llvm.lifetime.start.p0(i64 20, ptr nonnull %buffer.i.i)
  %cmp.i.i = icmp slt i16 %call, 0
  br i1 %cmp.i.i, label %if.then.i.i, label %if.end.i.i

if.then.i.i:                                      ; preds = %if.else
  tail call void @_ZNSt7__cxx1112basic_stringIcSt11char_traitsIcESaIcEE9push_backEc(ptr noundef nonnull align 8 dereferenceable(32) %result, i8 noundef signext 45)
  br label %if.end.i.i

if.end.i.i:                                       ; preds = %if.then.i.i, %if.else
  %5 = tail call i16 @llvm.abs.i16(i16 %call, i1 false)
  %cond.i.i = zext i16 %5 to i64
  br label %for.body.i.i.i.i.i.i

for.body.i.i.i.i.i.i:                             ; preds = %if.end.i.i.i.i.i.i, %if.end.i.i
  %i.i.015.i.i.i.i.i = phi i64 [ 0, %if.end.i.i ], [ %inc.i.i.i.i.i.i, %if.end.i.i.i.i.i.i ]
  %arrayidx.i9.i.i.i.i.i = getelementptr inbounds [20 x i64], ptr @_ZN5folly6detail15to_ascii_powersILm10EmE4dataE, i64 0, i64 %i.i.015.i.i.i.i.i
  %6 = load i64, ptr %arrayidx.i9.i.i.i.i.i, align 8
  %cmp1.i.i.i.i.i.i = icmp ugt i64 %6, %cond.i.i
  br i1 %cmp1.i.i.i.i.i.i, label %_ZN5folly6detail19to_ascii_size_arrayILm10EEEmm.exit.i.i.i.i.i, label %if.end.i.i.i.i.i.i

if.end.i.i.i.i.i.i:                               ; preds = %for.body.i.i.i.i.i.i
  %inc.i.i.i.i.i.i = add nuw nsw i64 %i.i.015.i.i.i.i.i, 1
  %exitcond.not.i.i.i.i.i = icmp eq i64 %inc.i.i.i.i.i.i, 20
  br i1 %exitcond.not.i.i.i.i.i, label %while.body.i.preheader.i.i.i.i.i, label %for.body.i.i.i.i.i.i, !llvm.loop !217

_ZN5folly6detail19to_ascii_size_arrayILm10EEEmm.exit.i.i.i.i.i: ; preds = %for.body.i.i.i.i.i.i
  %cmp2.i.i.i.i.i.i = icmp eq i64 %i.i.015.i.i.i.i.i, 0
  %conv.i11.i.i.i.i.i = zext i1 %cmp2.i.i.i.i.i.i to i64
  %add.i.i.i.i.i.i = add nuw nsw i64 %i.i.015.i.i.i.i.i, %conv.i11.i.i.i.i.i
  %cmp.i16.i.i.i.i.i = icmp ugt i64 %add.i.i.i.i.i.i, 2
  br i1 %cmp.i16.i.i.i.i.i, label %while.body.i.preheader.i.i.i.i.i, label %while.end.i.i.i.i.i.i

while.body.i.preheader.i.i.i.i.i:                 ; preds = %if.end.i.i.i.i.i.i, %_ZN5folly6detail19to_ascii_size_arrayILm10EEEmm.exit.i.i.i.i.i
  %retval.i.024.i.i.i.i.i = phi i64 [ %add.i.i.i.i.i.i, %_ZN5folly6detail19to_ascii_size_arrayILm10EEEmm.exit.i.i.i.i.i ], [ 20, %if.end.i.i.i.i.i.i ]
  br label %while.body.i.i.i.i.i.i

while.body.i.i.i.i.i.i:                           ; preds = %while.body.i.i.i.i.i.i, %while.body.i.preheader.i.i.i.i.i
  %v.addr.i6.018.i.i.i.i.i = phi i64 [ %div.i.i.i.i.i.i, %while.body.i.i.i.i.i.i ], [ %cond.i.i, %while.body.i.preheader.i.i.i.i.i ]
  %pos.i.017.i.i.i.i.i = phi i64 [ %sub.i.i.i.i.i.i, %while.body.i.i.i.i.i.i ], [ %retval.i.024.i.i.i.i.i, %while.body.i.preheader.i.i.i.i.i ]
  %sub.i.i.i.i.i.i = add i64 %pos.i.017.i.i.i.i.i, -2
  %div.i.i.i.i.i.i = udiv i64 %v.addr.i6.018.i.i.i.i.i, 100
  %rem.i.i.i.i.i.i = urem i64 %v.addr.i6.018.i.i.i.i.i, 100
  %arrayidx.i.i.i.i.i.i = getelementptr inbounds [100 x i16], ptr @_ZN5folly6detail14to_ascii_tableILm10ENS_17to_ascii_alphabetILb0EEEE4dataE, i64 0, i64 %rem.i.i.i.i.i.i
  %7 = load i16, ptr %arrayidx.i.i.i.i.i.i, align 2
  %add.ptr.i.i.i.i.i.i = getelementptr inbounds i8, ptr %buffer.i.i, i64 %sub.i.i.i.i.i.i
  store i16 %7, ptr %add.ptr.i.i.i.i.i.i, align 1
  %cmp.i.i.i.i.i.i = icmp ugt i64 %sub.i.i.i.i.i.i, 2
  br i1 %cmp.i.i.i.i.i.i, label %while.body.i.i.i.i.i.i, label %while.end.i.i.i.i.i.i, !llvm.loop !218

while.end.i.i.i.i.i.i:                            ; preds = %while.body.i.i.i.i.i.i, %_ZN5folly6detail19to_ascii_size_arrayILm10EEEmm.exit.i.i.i.i.i
  %retval.i.023.i.i.i.i.i = phi i64 [ %add.i.i.i.i.i.i, %_ZN5folly6detail19to_ascii_size_arrayILm10EEEmm.exit.i.i.i.i.i ], [ %retval.i.024.i.i.i.i.i, %while.body.i.i.i.i.i.i ]
  %pos.i.0.lcssa.i.i.i.i.i = phi i64 [ %add.i.i.i.i.i.i, %_ZN5folly6detail19to_ascii_size_arrayILm10EEEmm.exit.i.i.i.i.i ], [ %sub.i.i.i.i.i.i, %while.body.i.i.i.i.i.i ]
  %v.addr.i6.0.lcssa.i.i.i.i.i = phi i64 [ %cond.i.i, %_ZN5folly6detail19to_ascii_size_arrayILm10EEEmm.exit.i.i.i.i.i ], [ %div.i.i.i.i.i.i, %while.body.i.i.i.i.i.i ]
  %arrayidx2.i.i.i.i.i.i = getelementptr inbounds [100 x i16], ptr @_ZN5folly6detail14to_ascii_tableILm10ENS_17to_ascii_alphabetILb0EEEE4dataE, i64 0, i64 %v.addr.i6.0.lcssa.i.i.i.i.i
  %8 = load i16, ptr %arrayidx2.i.i.i.i.i.i, align 2
  %cmp3.i.i.i.i.i.i = icmp eq i64 %pos.i.0.lcssa.i.i.i.i.i, 2
  br i1 %cmp3.i.i.i.i.i.i, label %if.then.i.i.i.i.i.i, label %if.else.i.i.i.i.i.i

if.then.i.i.i.i.i.i:                              ; preds = %while.end.i.i.i.i.i.i
  store i16 %8, ptr %buffer.i.i, align 16
  br label %_ZN5folly8toAppendINSt7__cxx1112basic_stringIcSt11char_traitsIcESaIcEEEsEENSt9enable_ifIXaaaa13is_integral_vIT0_Esr12IsSomeStringIT_EE5valueltstS8_Li4EEvE4typeES8_PS9_.exit

if.else.i.i.i.i.i.i:                              ; preds = %while.end.i.i.i.i.i.i
  %9 = lshr i16 %8, 8
  %conv4.i.i.i.i.i.i = trunc i16 %9 to i8
  store i8 %conv4.i.i.i.i.i.i, ptr %buffer.i.i, align 16
  br label %_ZN5folly8toAppendINSt7__cxx1112basic_stringIcSt11char_traitsIcESaIcEEEsEENSt9enable_ifIXaaaa13is_integral_vIT0_Esr12IsSomeStringIT_EE5valueltstS8_Li4EEvE4typeES8_PS9_.exit

_ZN5folly8toAppendINSt7__cxx1112basic_stringIcSt11char_traitsIcESaIcEEEsEENSt9enable_ifIXaaaa13is_integral_vIT0_Esr12IsSomeStringIT_EE5valueltstS8_Li4EEvE4typeES8_PS9_.exit: ; preds = %if.then.i.i.i.i.i.i, %if.else.i.i.i.i.i.i
  %call2.i.i = call noundef nonnull align 8 dereferenceable(32) ptr @_ZNSt7__cxx1112basic_stringIcSt11char_traitsIcESaIcEE6appendEPKcm(ptr noundef nonnull align 8 dereferenceable(32) %result, ptr noundef nonnull %buffer.i.i, i64 noundef %retval.i.023.i.i.i.i.i)
  call void @llvm.lifetime.end.p0(i64 20, ptr nonnull %buffer.i.i)
  br label %if.end

if.end:                                           ; preds = %_ZN5folly8toAppendINSt7__cxx1112basic_stringIcSt11char_traitsIcESaIcEEEsEENSt9enable_ifIXaaaa13is_integral_vIT0_Esr12IsSomeStringIT_EE5valueltstS8_Li4EEvE4typeES8_PS9_.exit, %invoke.cont
  ret void
}